Certificate:
    Data:
        Version: 3 (0x2)
        Serial Number: 4105 (0x1009)
    Signature Algorithm: sha256WithRSAEncryption
        Issuer: C=CN, ST=Shanghai, L=Shanghai, O=Pomelo Booster, OU=Root CA, CN=Pomelo Booster Root CA/emailAddress=system@boost.game
        Validity
            Not Before: Jun  5 05:15:48 2018 GMT
            Not After : Jun  5 05:15:48 2019 GMT
        Subject: C=CN, ST=Shanghai, O=Pomelo Booster, OU=Internal Services, CN=Pomelo Booster Internal Services CA/emailAddress=internal@boost.game
        Subject Public Key Info:
            Public Key Algorithm: rsaEncryption
                Public-Key: (2048 bit)
                Modulus:
                    00:a5:65:75:ba:a9:81:da:30:ad:77:18:74:f5:d0:
                    a6:8a:3e:5f:28:3c:dd:a5:2c:de:7b:22:26:63:b9:
                    27:97:08:fb:d8:a1:aa:d1:82:21:dc:42:bc:64:5e:
                    16:3e:0e:d0:c1:3f:22:50:2b:8b:c4:e9:e0:a2:d4:
                    38:c1:11:58:a8:b3:33:94:21:48:08:2a:79:41:ab:
                    4b:a0:37:af:88:e0:a2:e7:cf:27:f3:21:10:a3:6b:
                    cf:14:fc:55:6a:21:be:1c:43:6a:1f:c3:7f:2b:65:
                    9d:8a:ee:c4:21:70:dd:14:ee:01:57:ec:6f:a4:43:
                    7f:f8:6c:06:00:3d:20:fe:2e:9b:dc:f5:42:00:ef:
                    3a:35:84:e8:3a:05:ac:fb:47:c4:10:27:fa:1e:b2:
                    eb:b4:c7:6e:d9:f7:48:19:26:66:49:d3:d5:9e:43:
                    91:63:22:37:c7:c2:7e:56:65:6e:eb:8c:c3:fe:c6:
                    07:02:92:00:5c:03:2e:05:d1:8d:0b:0d:ad:4f:64:
                    5c:76:53:52:6d:5c:be:38:b8:5c:0f:8b:e1:07:26:
                    44:06:6a:4e:3b:74:23:f7:34:32:2f:3b:ec:2f:33:
                    0b:6e:30:f9:26:7c:c1:b2:cd:ff:72:0f:8b:13:32:
                    84:a4:63:e2:5e:a4:27:be:3b:88:55:aa:44:7e:e6:
                    77:47
                Exponent: 65537 (0x10001)
        X509v3 extensions:
            X509v3 Basic Constraints: 
                CA:TRUE
    Signature Algorithm: sha256WithRSAEncryption
         87:83:38:14:24:77:74:63:99:4a:12:e3:b2:b7:c1:dd:a1:57:
         72:9f:d5:65:10:ca:4e:78:1a:04:13:f9:a0:ad:5b:a4:c5:71:
         9e:f8:d1:0b:13:e6:74:20:93:0e:0e:55:bf:e4:44:52:1d:5d:
         74:a2:ee:0c:bf:88:f5:09:51:be:ce:dd:bb:da:c5:a9:a2:a8:
         1e:90:e3:fa:b8:f5:3b:31:d1:62:c7:86:af:8c:13:e6:76:cb:
         01:c4:ca:90:b4:a1:20:9b:30:d4:e8:43:5d:45:ba:40:d8:d5:
         b8:72:99:1a:79:66:30:8f:06:f8:97:6d:15:ae:69:19:bf:8c:
         41:b3:e8:c2:cb:73:7c:c6:c8:6a:05:d3:84:34:8b:b8:fd:81:
         9d:2c:22:2c:ae:a5:49:fe:22:2b:6a:35:4a:2c:00:75:34:44:
         59:4c:ef:9c:30:e5:bb:93:4c:c1:80:ce:7e:ed:f7:a6:b2:a0:
         80:d7:9d:90:ce:a0:83:ff:dd:fb:12:34:57:d6:fd:77:8b:14:
         a9:0f:56:38:57:ff:04:68:31:06:2f:b3:3d:1f:55:05:99:03:
         d4:c5:71:9f:2c:ba:35:a9:fa:e2:80:40:2a:f1:8a:06:d7:6f:
         e4:74:89:94:6d:c4:5d:5d:4a:17:b0:1a:8f:0f:74:2b:f2:d8:
         fe:7a:7b:f5
-----BEGIN CERTIFICATE-----
MIID1jCCAr6gAwIBAgICEAkwDQYJKoZIhvcNAQELBQAwgaExCzAJBgNVBAYTAkNO
MREwDwYDVQQIDAhTaGFuZ2hhaTERMA8GA1UEBwwIU2hhbmdoYWkxFzAVBgNVBAoM
DlBvbWVsbyBCb29zdGVyMRAwDgYDVQQLDAdSb290IENBMR8wHQYDVQQDDBZQb21l
bG8gQm9vc3RlciBSb290IENBMSAwHgYJKoZIhvcNAQkBFhFzeXN0ZW1AYm9vc3Qu
Z2FtZTAeFw0xODA2MDUwNTE1NDhaFw0xOTA2MDUwNTE1NDhaMIGnMQswCQYDVQQG
EwJDTjERMA8GA1UECAwIU2hhbmdoYWkxFzAVBgNVBAoMDlBvbWVsbyBCb29zdGVy
MRowGAYDVQQLDBFJbnRlcm5hbCBTZXJ2aWNlczEsMCoGA1UEAwwjUG9tZWxvIEJv
b3N0ZXIgSW50ZXJuYWwgU2VydmljZXMgQ0ExIjAgBgkqhkiG9w0BCQEWE2ludGVy
bmFsQGJvb3N0LmdhbWUwggEiMA0GCSqGSIb3DQEBAQUAA4IBDwAwggEKAoIBAQCl
ZXW6qYHaMK13GHT10KaKPl8oPN2lLN57IiZjuSeXCPvYoarRgiHcQrxkXhY+DtDB
PyJQK4vE6eCi1DjBEVioszOUIUgIKnlBq0ugN6+I4KLnzyfzIRCja88U/FVqIb4c
Q2ofw38rZZ2K7sQhcN0U7gFX7G+kQ3/4bAYAPSD+Lpvc9UIA7zo1hOg6Baz7R8QQ
J/oesuu0x27Z90gZJmZJ09WeQ5FjIjfHwn5WZW7rjMP+xgcCkgBcAy4F0Y0LDa1P
ZFx2U1JtXL44uFwPi+EHJkQGak47dCP3NDIvO+wvMwtuMPkmfMGyzf9yD4sTMoSk
Y+JepCe+O4hVqkR+5ndHAgMBAAGjEDAOMAwGA1UdEwQFMAMBAf8wDQYJKoZIhvcN
AQELBQADggEBAIeDOBQkd3RjmUoS47K3wd2hV3Kf1WUQyk54GgQT+aCtW6TFcZ74
0QsT5nQgkw4OVb/kRFIdXXSi7gy/iPUJUb7O3bvaxamiqB6Q4/q49Tsx0WLHhq+M
E+Z2ywHEypC0oSCbMNToQ11FukDY1bhymRp5ZjCPBviXbRWuaRm/jEGz6MLLc3zG
yGoF04Q0i7j9gZ0sIiyupUn+IitqNUosAHU0RFlM75ww5buTTMGAzn7t96ayoIDX
nZDOoIP/3fsSNFfW/XeLFKkPVjhX/wRoMQYvsz0fVQWZA9TFcZ8sujWp+uKAQCrx
igbXb+R0iZRtxF1dShewGo8PdCvy2P56e/U=
-----END CERTIFICATE-----
